; Function Attrs: nounwind uwtable
define internal void @sapi_cli_server_flush(ptr noundef readonly captures(address_is_null) %0) #0 {
  %.not = icmp eq ptr %0, null
  br i1 %.not, label %11, label %2

2:                                                ; preds = %1
  %3 = getelementptr inbounds nuw i8, ptr %0, i64 8
  %4 = load i32, ptr %3, align 8, !tbaa !64
  %5 = icmp sgt i32 %4, -1
  br i1 %5, label %7, label %6

6:                                                ; preds = %2
  tail call void @php_handle_aborted_connection() #29
  br label %11

7:                                                ; preds = %2
  %8 = load i8, ptr getelementptr inbounds nuw (i8, ptr @sapi_globals, i64 249), align 1, !tbaa !79
  %.not3 = icmp eq i8 %8, 0
  br i1 %.not3, label %9, label %11

9:                                                ; preds = %7
  %10 = tail call i32 @sapi_send_headers() #29
  store i8 1, ptr getelementptr inbounds nuw (i8, ptr @sapi_globals, i64 249), align 1, !tbaa !79
  br label %11

11:                                               ; preds = %7, %9, %1, %6
  ret void
}